
fib_out_1:     формат файла elf32-littleriscv


Дизассемблирование раздела .text:

00010074 <fib>:
   10074:	fd010113          	addi	x2,x2,-48
   10078:	02112623          	sw	x1,44(x2)
   1007c:	02812423          	sw	x8,40(x2)
   10080:	03010413          	addi	x8,x2,48
   10084:	fca42e23          	sw	x10,-36(x8)
   10088:	fcb42a23          	sw	x11,-44(x8)
   1008c:	fcc42c23          	sw	x12,-40(x8)
   10090:	fdc42783          	lw	x15,-36(x8)
   10094:	00079663          	bne	x15,x0,100a0 <fib+0x2c>
   10098:	fd442783          	lw	x15,-44(x8)
   1009c:	04c0006f          	jal	x0,100e8 <fib+0x74>
   100a0:	fdc42703          	lw	x14,-36(x8)
   100a4:	00100793          	addi	x15,x0,1
   100a8:	00f71663          	bne	x14,x15,100b4 <fib+0x40>
   100ac:	fd842783          	lw	x15,-40(x8)
   100b0:	0380006f          	jal	x0,100e8 <fib+0x74>
   100b4:	fd842783          	lw	x15,-40(x8)
   100b8:	fef42423          	sw	x15,-24(x8)
   100bc:	fd442703          	lw	x14,-44(x8)
   100c0:	fd842783          	lw	x15,-40(x8)
   100c4:	00f707b3          	add	x15,x14,x15
   100c8:	fef42623          	sw	x15,-20(x8)
   100cc:	fdc42783          	lw	x15,-36(x8)
   100d0:	fff78793          	addi	x15,x15,-1
   100d4:	fe842583          	lw	x11,-24(x8)
   100d8:	fec42603          	lw	x12,-20(x8)
   100dc:	00078513          	addi	x10,x15,0
   100e0:	f95ff0ef          	jal	x1,10074 <fib>
   100e4:	00050793          	addi	x15,x10,0
   100e8:	00078513          	addi	x10,x15,0
   100ec:	02c12083          	lw	x1,44(x2)
   100f0:	02812403          	lw	x8,40(x2)
   100f4:	03010113          	addi	x2,x2,48
   100f8:	00008067          	jalr	x0,0(x1)

000100fc <main>:
   100fc:	fe010113          	addi	x2,x2,-32
   10100:	00112e23          	sw	x1,28(x2)
   10104:	00812c23          	sw	x8,24(x2)
   10108:	02010413          	addi	x8,x2,32
   1010c:	00500793          	addi	x15,x0,5
   10110:	fef42623          	sw	x15,-20(x8)
   10114:	fe042023          	sw	x0,-32(x8)
   10118:	00100793          	addi	x15,x0,1
   1011c:	fef42223          	sw	x15,-28(x8)
   10120:	fe042583          	lw	x11,-32(x8)
   10124:	fe442603          	lw	x12,-28(x8)
   10128:	fec42503          	lw	x10,-20(x8)
   1012c:	f49ff0ef          	jal	x1,10074 <fib>
   10130:	fea42423          	sw	x10,-24(x8)
   10134:	fe842783          	lw	x15,-24(x8)
   10138:	00078513          	addi	x10,x15,0
   1013c:	01c12083          	lw	x1,28(x2)
   10140:	01812403          	lw	x8,24(x2)
   10144:	02010113          	addi	x2,x2,32
   10148:	00100073          	ebreak

Дизассемблирование раздела .comment:

00000000 <.comment>:
   0:	3a434347          	.insn	4, 0x3a434347
   4:	2820                	.insn	2, 0x2820
   6:	73697227          	.insn	4, 0x73697227
   a:	32337663          	bgeu	x6,x3,336 <fib-0xfd3e>
   e:	652d                	.insn	2, 0x652d
  10:	626d                	.insn	2, 0x626d
  12:	6365                	.insn	2, 0x6365
  14:	2d6d736f          	jal	x6,d72ea <__global_pointer$+0xc599e>
  18:	6275                	.insn	2, 0x6275
  1a:	6e75                	.insn	2, 0x6e75
  1c:	7574                	.insn	2, 0x7574
  1e:	3032                	.insn	2, 0x3032
  20:	3430                	.insn	2, 0x3430
  22:	672d                	.insn	2, 0x672d
  24:	33316363          	bltu	x2,x19,34a <fib-0xfd2a>
  28:	322e                	.insn	2, 0x322e
  2a:	302e                	.insn	2, 0x302e
  2c:	31202927          	.insn	4, 0x31202927
  30:	2e322e33          	.insn	4, 0x2e322e33
  34:	0030                	.insn	2, 0x0030

Дизассемблирование раздела .riscv.attributes:

00000000 <.riscv.attributes>:
   0:	1b41                	.insn	2, 0x1b41
   2:	0000                	.insn	2, 0x
   4:	7200                	.insn	2, 0x7200
   6:	7369                	.insn	2, 0x7369
   8:	01007663          	bgeu	x0,x16,14 <fib-0x10060>
   c:	0011                	.insn	2, 0x0011
   e:	0000                	.insn	2, 0x
  10:	1004                	.insn	2, 0x1004
  12:	7205                	.insn	2, 0x7205
  14:	3376                	.insn	2, 0x3376
  16:	6932                	.insn	2, 0x6932
  18:	7032                	.insn	2, 0x7032
  1a:	0031                	.insn	2, 0x0031
